target datalayout = "e-m:e-p270:32:32-p271:32:32-p272:64:64-i64:64-i128:128-f80:128-n8:16:32:64-S128"
target triple = "x86_64-pc-linux-gnu"

%struct.RepeatInfo = type { i8, i32, i32, i32, i32, i32, i32, [2 x i32], i32, i32, i32, i32, i32 }
%struct.RepeatRangeControl = type { i64, i8 }
%struct.unaligned = type { i16 }
%struct.unaligned.2 = type { i16 }

; Function Attrs: alwaysinline nounwind uwtable
define internal void @unaligned_store_u16(ptr noundef %0, i16 noundef zeroext %1) #2 {
  %3 = alloca ptr, align 8
  %4 = alloca i16, align 2
  %5 = alloca ptr, align 8
  store ptr %0, ptr %3, align 8
  store i16 %1, ptr %4, align 2
  call void @llvm.lifetime.start.p0(i64 8, ptr %5) #7
  %6 = load ptr, ptr %3, align 8
  store ptr %6, ptr %5, align 8
  %7 = load i16, ptr %4, align 2
  %8 = load ptr, ptr %5, align 8
  %9 = getelementptr inbounds nuw %struct.unaligned.2, ptr %8, i32 0, i32 0
  store i16 %7, ptr %9, align 1
  call void @llvm.lifetime.end.p0(i64 8, ptr %5) #7
  ret void
}

; Function Attrs: alwaysinline nounwind uwtable
define internal zeroext i16 @unaligned_load_u16(ptr noundef %0) #2 {
  %2 = alloca ptr, align 8
  %3 = alloca ptr, align 8
  store ptr %0, ptr %2, align 8
  call void @llvm.lifetime.start.p0(i64 8, ptr %3) #7
  %4 = load ptr, ptr %2, align 8
  store ptr %4, ptr %3, align 8
  %5 = load ptr, ptr %3, align 8
  %6 = getelementptr inbounds nuw %struct.unaligned, ptr %5, i32 0, i32 0
  %7 = load i16, ptr %6, align 1
  call void @llvm.lifetime.end.p0(i64 8, ptr %3) #7
  ret i16 %7
}

; Function Attrs: alwaysinline nounwind uwtable
define internal void @storeInitialRangeTop(ptr noundef %0, ptr noundef %1, i64 noundef %2) #2 {
  %4 = alloca ptr, align 8
  %5 = alloca ptr, align 8
  %6 = alloca i64, align 8
  store ptr %0, ptr %4, align 8
  store ptr %1, ptr %5, align 8
  store i64 %2, ptr %6, align 8
  %7 = load i64, ptr %6, align 8
  %8 = load ptr, ptr %4, align 8
  %9 = getelementptr inbounds nuw %struct.RepeatRangeControl, ptr %8, i32 0, i32 0
  store i64 %7, ptr %9, align 8
  %10 = load ptr, ptr %4, align 8
  %11 = getelementptr inbounds nuw %struct.RepeatRangeControl, ptr %10, i32 0, i32 1
  store i8 1, ptr %11, align 8
  %12 = load ptr, ptr %5, align 8
  call void @unaligned_store_u16(ptr noundef %12, i16 noundef zeroext 0)
  ret void
}

; Function Attrs: nounwind uwtable
define hidden void @repeatStoreRange(ptr noundef %0, ptr noundef %1, ptr noundef %2, i64 noundef %3, i8 noundef signext %4) #0 {
  %6 = alloca ptr, align 8
  %7 = alloca ptr, align 8
  %8 = alloca ptr, align 8
  %9 = alloca i64, align 8
  %10 = alloca i8, align 1
  %11 = alloca ptr, align 8
  %12 = alloca ptr, align 8
  %13 = alloca i32, align 4
  %14 = alloca i32, align 4
  %15 = alloca i64, align 8
  %16 = alloca i16, align 2
  %17 = alloca i32, align 4
  %18 = alloca i16, align 2
  %19 = alloca i32, align 4
  %20 = alloca i64, align 8
  store ptr %0, ptr %6, align 8
  store ptr %1, ptr %7, align 8
  store ptr %2, ptr %8, align 8
  store i64 %3, ptr %9, align 8
  store i8 %4, ptr %10, align 1
  call void @llvm.lifetime.start.p0(i64 8, ptr %11) #7
  %21 = load ptr, ptr %7, align 8
  store ptr %21, ptr %11, align 8
  call void @llvm.lifetime.start.p0(i64 8, ptr %12) #7
  %22 = load ptr, ptr %8, align 8
  store ptr %22, ptr %12, align 8
  %23 = load i8, ptr %10, align 1
  %24 = icmp ne i8 %23, 0
  br i1 %24, label %32, label %25

25:                                               ; preds = %5
  br label %26

26:                                               ; preds = %25
  br label %27

27:                                               ; preds = %26
  br label %28

28:                                               ; preds = %27
  %29 = load ptr, ptr %11, align 8
  %30 = load ptr, ptr %12, align 8
  %31 = load i64, ptr %9, align 8
  call void @storeInitialRangeTop(ptr noundef %29, ptr noundef %30, i64 noundef %31)
  store i32 1, ptr %13, align 4
  br label %217

32:                                               ; preds = %5
  br label %33

33:                                               ; preds = %32
  br label %34

34:                                               ; preds = %33
  br label %35

35:                                               ; preds = %34
  call void @llvm.lifetime.start.p0(i64 4, ptr %14) #7
  store i32 0, ptr %14, align 4
  br label %36

36:                                               ; preds = %70, %35
  %37 = load i32, ptr %14, align 4
  %38 = load ptr, ptr %11, align 8
  %39 = getelementptr inbounds nuw %struct.RepeatRangeControl, ptr %38, i32 0, i32 1
  %40 = load i8, ptr %39, align 8
  %41 = zext i8 %40 to i32
  %42 = icmp ult i32 %37, %41
  br i1 %42, label %43, label %73

43:                                               ; preds = %36
  call void @llvm.lifetime.start.p0(i64 8, ptr %15) #7
  %44 = load ptr, ptr %11, align 8
  %45 = getelementptr inbounds nuw %struct.RepeatRangeControl, ptr %44, i32 0, i32 0
  %46 = load i64, ptr %45, align 8
  %47 = load ptr, ptr %12, align 8
  %48 = load i32, ptr %14, align 4
  %49 = zext i32 %48 to i64
  %50 = getelementptr inbounds nuw i16, ptr %47, i64 %49
  %51 = call zeroext i16 @unaligned_load_u16(ptr noundef %50)
  %52 = zext i16 %51 to i64
  %53 = add i64 %46, %52
  store i64 %53, ptr %15, align 8
  br label %54

54:                                               ; preds = %43
  br label %55

55:                                               ; preds = %54
  br label %56

56:                                               ; preds = %55
  %57 = load i64, ptr %9, align 8
  %58 = load i64, ptr %15, align 8
  %59 = sub i64 %57, %58
  %60 = load ptr, ptr %6, align 8
  %61 = getelementptr inbounds nuw %struct.RepeatInfo, ptr %60, i32 0, i32 2
  %62 = load i32, ptr %61, align 4
  %63 = zext i32 %62 to i64
  %64 = icmp ule i64 %59, %63
  br i1 %64, label %65, label %66

65:                                               ; preds = %56
  store i32 6, ptr %13, align 4
  br label %67

66:                                               ; preds = %56
  store i32 0, ptr %13, align 4
  br label %67

67:                                               ; preds = %66, %65
  call void @llvm.lifetime.end.p0(i64 8, ptr %15) #7
  %68 = load i32, ptr %13, align 4
  switch i32 %68, label %220 [
    i32 0, label %69
    i32 6, label %73
  ]

69:                                               ; preds = %67
  br label %70

70:                                               ; preds = %69
  %71 = load i32, ptr %14, align 4
  %72 = add i32 %71, 1
  store i32 %72, ptr %14, align 4
  br label %36

73:                                               ; preds = %67, %36
  %74 = load i32, ptr %14, align 4
  %75 = load ptr, ptr %11, align 8
  %76 = getelementptr inbounds nuw %struct.RepeatRangeControl, ptr %75, i32 0, i32 1
  %77 = load i8, ptr %76, align 8
  %78 = zext i8 %77 to i32
  %79 = icmp eq i32 %74, %78
  br i1 %79, label %80, label %87

80:                                               ; preds = %73
  br label %81

81:                                               ; preds = %80
  br label %82

82:                                               ; preds = %81
  br label %83

83:                                               ; preds = %82
  %84 = load ptr, ptr %11, align 8
  %85 = load ptr, ptr %12, align 8
  %86 = load i64, ptr %9, align 8
  call void @storeInitialRangeTop(ptr noundef %84, ptr noundef %85, i64 noundef %86)
  store i32 1, ptr %13, align 4
  br label %216

87:                                               ; preds = %73
  %88 = load i32, ptr %14, align 4
  %89 = icmp ugt i32 %88, 0
  br i1 %89, label %90, label %145

90:                                               ; preds = %87
  br label %91

91:                                               ; preds = %90
  br label %92

92:                                               ; preds = %91
  br label %93

93:                                               ; preds = %92
  call void @llvm.lifetime.start.p0(i64 2, ptr %16) #7
  %94 = load ptr, ptr %12, align 8
  %95 = load i32, ptr %14, align 4
  %96 = zext i32 %95 to i64
  %97 = getelementptr inbounds nuw i16, ptr %94, i64 %96
  %98 = call zeroext i16 @unaligned_load_u16(ptr noundef %97)
  store i16 %98, ptr %16, align 2
  call void @llvm.lifetime.start.p0(i64 4, ptr %17) #7
  store i32 0, ptr %17, align 4
  br label %99

99:                                               ; preds = %128, %93
  %100 = load i32, ptr %17, align 4
  %101 = load ptr, ptr %11, align 8
  %102 = getelementptr inbounds nuw %struct.RepeatRangeControl, ptr %101, i32 0, i32 1
  %103 = load i8, ptr %102, align 8
  %104 = zext i8 %103 to i32
  %105 = load i32, ptr %14, align 4
  %106 = sub i32 %104, %105
  %107 = icmp ult i32 %100, %106
  br i1 %107, label %109, label %108

108:                                              ; preds = %99
  store i32 15, ptr %13, align 4
  call void @llvm.lifetime.end.p0(i64 4, ptr %17) #7
  br label %131

109:                                              ; preds = %99
  call void @llvm.lifetime.start.p0(i64 2, ptr %18) #7
  %110 = load ptr, ptr %12, align 8
  %111 = load i32, ptr %14, align 4
  %112 = zext i32 %111 to i64
  %113 = getelementptr inbounds nuw i16, ptr %110, i64 %112
  %114 = load i32, ptr %17, align 4
  %115 = zext i32 %114 to i64
  %116 = getelementptr inbounds nuw i16, ptr %113, i64 %115
  %117 = call zeroext i16 @unaligned_load_u16(ptr noundef %116)
  store i16 %117, ptr %18, align 2
  %118 = load ptr, ptr %12, align 8
  %119 = load i32, ptr %17, align 4
  %120 = zext i32 %119 to i64
  %121 = getelementptr inbounds nuw i16, ptr %118, i64 %120
  %122 = load i16, ptr %18, align 2
  %123 = zext i16 %122 to i32
  %124 = load i16, ptr %16, align 2
  %125 = zext i16 %124 to i32
  %126 = sub nsw i32 %123, %125
  %127 = trunc i32 %126 to i16
  call void @unaligned_store_u16(ptr noundef %121, i16 noundef zeroext %127)
  call void @llvm.lifetime.end.p0(i64 2, ptr %18) #7
  br label %128

128:                                              ; preds = %109
  %129 = load i32, ptr %17, align 4
  %130 = add i32 %129, 1
  store i32 %130, ptr %17, align 4
  br label %99

131:                                              ; preds = %108
  %132 = load i16, ptr %16, align 2
  %133 = zext i16 %132 to i64
  %134 = load ptr, ptr %11, align 8
  %135 = getelementptr inbounds nuw %struct.RepeatRangeControl, ptr %134, i32 0, i32 0
  %136 = load i64, ptr %135, align 8
  %137 = add i64 %136, %133
  store i64 %137, ptr %135, align 8
  %138 = load i32, ptr %14, align 4
  %139 = load ptr, ptr %11, align 8
  %140 = getelementptr inbounds nuw %struct.RepeatRangeControl, ptr %139, i32 0, i32 1
  %141 = load i8, ptr %140, align 8
  %142 = zext i8 %141 to i32
  %143 = sub i32 %142, %138
  %144 = trunc i32 %143 to i8
  store i8 %144, ptr %140, align 8
  call void @llvm.lifetime.end.p0(i64 2, ptr %16) #7
  br label %145

145:                                              ; preds = %131, %87
  br label %146

146:                                              ; preds = %145
  %147 = load ptr, ptr %11, align 8
  %148 = getelementptr inbounds nuw %struct.RepeatRangeControl, ptr %147, i32 0, i32 1
  %149 = load i8, ptr %148, align 8
  %150 = zext i8 %149 to i32
  %151 = icmp eq i32 %150, 1
  br i1 %151, label %152, label %153

152:                                              ; preds = %146
  br label %197

153:                                              ; preds = %146
  %154 = load ptr, ptr %6, align 8
  %155 = getelementptr inbounds nuw %struct.RepeatInfo, ptr %154, i32 0, i32 2
  %156 = load i32, ptr %155, align 4
  %157 = load ptr, ptr %6, align 8
  %158 = getelementptr inbounds nuw %struct.RepeatInfo, ptr %157, i32 0, i32 1
  %159 = load i32, ptr %158, align 4
  %160 = sub i32 %156, %159
  store i32 %160, ptr %19, align 4
  %161 = load ptr, ptr %11, align 8
  %162 = getelementptr inbounds nuw %struct.RepeatRangeControl, ptr %161, i32 0, i32 0
  %163 = load i64, ptr %162, align 8
  %164 = load ptr, ptr %12, align 8
  %165 = load ptr, ptr %11, align 8
  %166 = getelementptr inbounds nuw %struct.RepeatRangeControl, ptr %165, i32 0, i32 1
  %167 = load i8, ptr %166, align 8
  %168 = zext i8 %167 to i32
  %169 = sext i32 %168 to i64
  %170 = getelementptr inbounds i16, ptr %164, i64 %169
  %171 = getelementptr inbounds i16, ptr %170, i64 -2
  %172 = call zeroext i16 @unaligned_load_u16(ptr noundef %171)
  %173 = zext i16 %172 to i64
  %174 = add i64 %163, %173
  store i64 %174, ptr %20, align 8
  %175 = load i64, ptr %9, align 8
  %176 = load i64, ptr %20, align 8
  %177 = sub i64 %175, %176
  %178 = load i32, ptr %19, align 4
  %179 = zext i32 %178 to i64
  %180 = icmp ule i64 %177, %179
  br i1 %180, label %181, label %196

181:                                              ; preds = %153
  %182 = load ptr, ptr %12, align 8
  %183 = load ptr, ptr %11, align 8
  %184 = getelementptr inbounds nuw %struct.RepeatRangeControl, ptr %183, i32 0, i32 1
  %185 = load i8, ptr %184, align 8
  %186 = zext i8 %185 to i32
  %187 = sext i32 %186 to i64
  %188 = getelementptr inbounds i16, ptr %182, i64 %187
  %189 = getelementptr inbounds i16, ptr %188, i64 -1
  %190 = load i64, ptr %9, align 8
  %191 = load ptr, ptr %11, align 8
  %192 = getelementptr inbounds nuw %struct.RepeatRangeControl, ptr %191, i32 0, i32 0
  %193 = load i64, ptr %192, align 8
  %194 = sub i64 %190, %193
  %195 = trunc i64 %194 to i16
  call void @unaligned_store_u16(ptr noundef %189, i16 noundef zeroext %195)
  br label %215

196:                                              ; preds = %153
  br label %197

197:                                              ; preds = %196, %152
  %198 = load ptr, ptr %12, align 8
  %199 = load ptr, ptr %11, align 8
  %200 = getelementptr inbounds nuw %struct.RepeatRangeControl, ptr %199, i32 0, i32 1
  %201 = load i8, ptr %200, align 8
  %202 = zext i8 %201 to i32
  %203 = sext i32 %202 to i64
  %204 = getelementptr inbounds i16, ptr %198, i64 %203
  %205 = load i64, ptr %9, align 8
  %206 = load ptr, ptr %11, align 8
  %207 = getelementptr inbounds nuw %struct.RepeatRangeControl, ptr %206, i32 0, i32 0
  %208 = load i64, ptr %207, align 8
  %209 = sub i64 %205, %208
  %210 = trunc i64 %209 to i16
  call void @unaligned_store_u16(ptr noundef %204, i16 noundef zeroext %210)
  %211 = load ptr, ptr %11, align 8
  %212 = getelementptr inbounds nuw %struct.RepeatRangeControl, ptr %211, i32 0, i32 1
  %213 = load i8, ptr %212, align 8
  %214 = add i8 %213, 1
  store i8 %214, ptr %212, align 8
  br label %215

215:                                              ; preds = %197, %181
  store i32 0, ptr %13, align 4
  br label %216

216:                                              ; preds = %215, %83
  call void @llvm.lifetime.end.p0(i64 4, ptr %14) #7
  br label %217

217:                                              ; preds = %216, %28
  call void @llvm.lifetime.end.p0(i64 8, ptr %12) #7
  call void @llvm.lifetime.end.p0(i64 8, ptr %11) #7
  %218 = load i32, ptr %13, align 4
  switch i32 %218, label %220 [
    i32 0, label %219
    i32 1, label %219
  ]

219:                                              ; preds = %217, %217
  ret void

220:                                              ; preds = %217, %67
  unreachable
}