; Function Attrs: nofree norecurse nosync nounwind memory(argmem: readwrite) uwtable
define hidden void @repeatStoreRange(ptr noundef readonly captures(none) %0, ptr noundef captures(none) %1, ptr noundef captures(none) %2, i64 noundef %3, i8 noundef signext %4) local_unnamed_addr #4 {
  %.not = icmp eq i8 %4, 0
  br i1 %.not, label %12, label %.preheader

.preheader:                                       ; preds = %5
  %6 = getelementptr inbounds nuw i8, ptr %1, i64 8
  %7 = load i8, ptr %6, align 8
  %.not79 = icmp eq i8 %7, 0
  br i1 %.not79, label %._crit_edge.thread, label %.lr.ph

.lr.ph:                                           ; preds = %.preheader
  %8 = load i64, ptr %1, align 8
  %9 = getelementptr inbounds nuw i8, ptr %0, i64 8
  %10 = load i32, ptr %9, align 4
  %11 = zext i32 %10 to i64
  %wide.trip.count = zext i8 %7 to i64
  br label %14

12:                                               ; preds = %5
  store i64 %3, ptr %1, align 8
  %13 = getelementptr inbounds nuw i8, ptr %1, i64 8
  store i8 1, ptr %13, align 8
  store i16 0, ptr %2, align 1
  br label %67

14:                                               ; preds = %.lr.ph, %20
  %indvars.iv = phi i64 [ 0, %.lr.ph ], [ %indvars.iv.next, %20 ]
  %15 = getelementptr inbounds nuw i16, ptr %2, i64 %indvars.iv
  %16 = load i16, ptr %15, align 1
  %17 = zext i16 %16 to i64
  %18 = add i64 %8, %17
  %19 = sub i64 %3, %18
  %.not59 = icmp ugt i64 %19, %11
  br i1 %.not59, label %20, label %._crit_edge

20:                                               ; preds = %14
  %indvars.iv.next = add nuw nsw i64 %indvars.iv, 1
  %exitcond.not = icmp eq i64 %indvars.iv.next, %wide.trip.count
  br i1 %exitcond.not, label %._crit_edge.thread, label %14

._crit_edge:                                      ; preds = %14
  %21 = zext i8 %7 to i64
  %22 = icmp eq i64 %indvars.iv, %21
  br i1 %22, label %._crit_edge.thread, label %23

._crit_edge.thread:                               ; preds = %20, %.preheader, %._crit_edge
  store i64 %3, ptr %1, align 8
  store i8 1, ptr %6, align 8
  store i16 0, ptr %2, align 1
  br label %67

23:                                               ; preds = %._crit_edge
  %.not60 = icmp eq i64 %indvars.iv, 0
  br i1 %.not60, label %thread-pre-split, label %.lr.ph76.preheader

.lr.ph76.preheader:                               ; preds = %23
  %24 = and i64 %indvars.iv, 4294967295
  %25 = getelementptr inbounds nuw i16, ptr %2, i64 %24
  %26 = load i16, ptr %25, align 1
  br label %.lr.ph76

._crit_edge77:                                    ; preds = %.lr.ph76
  %27 = zext i16 %26 to i64
  %28 = load i64, ptr %1, align 8
  %29 = add i64 %28, %27
  store i64 %29, ptr %1, align 8
  %30 = trunc i64 %indvars.iv to i8
  %31 = sub i8 %36, %30
  store i8 %31, ptr %6, align 8
  br label %41

.lr.ph76:                                         ; preds = %.lr.ph76.preheader, %.lr.ph76
  %indvars.iv83 = phi i64 [ 0, %.lr.ph76.preheader ], [ %indvars.iv.next84, %.lr.ph76 ]
  %32 = getelementptr inbounds nuw i16, ptr %25, i64 %indvars.iv83
  %33 = load i16, ptr %32, align 1
  %34 = getelementptr inbounds nuw i16, ptr %2, i64 %indvars.iv83
  %35 = sub i16 %33, %26
  store i16 %35, ptr %34, align 1
  %indvars.iv.next84 = add nuw nsw i64 %indvars.iv83, 1
  %36 = load i8, ptr %6, align 8
  %37 = zext i8 %36 to i64
  %38 = sub nsw i64 %37, %indvars.iv
  %39 = and i64 %38, 4294967295
  %40 = icmp samesign ult i64 %indvars.iv.next84, %39
  br i1 %40, label %.lr.ph76, label %._crit_edge77

thread-pre-split:                                 ; preds = %23
  %.pre.pre = load i64, ptr %1, align 8
  br label %41

41:                                               ; preds = %thread-pre-split, %._crit_edge77
  %.pre = phi i64 [ %.pre.pre, %thread-pre-split ], [ %29, %._crit_edge77 ]
  %42 = phi i8 [ %7, %thread-pre-split ], [ %31, %._crit_edge77 ]
  %43 = icmp eq i8 %42, 1
  br i1 %43, label %._crit_edge87, label %44

44:                                               ; preds = %41
  %45 = getelementptr inbounds nuw i8, ptr %0, i64 8
  %46 = load i32, ptr %45, align 4
  %47 = getelementptr inbounds nuw i8, ptr %0, i64 4
  %48 = load i32, ptr %47, align 4
  %49 = sub i32 %46, %48
  %50 = zext i8 %42 to i64
  %51 = getelementptr inbounds nuw i16, ptr %2, i64 %50
  %52 = getelementptr inbounds i8, ptr %51, i64 -4
  %53 = load i16, ptr %52, align 1
  %54 = zext i16 %53 to i64
  %55 = add i64 %.pre, %54
  %56 = sub i64 %3, %55
  %57 = zext i32 %49 to i64
  %.not61 = icmp ugt i64 %56, %57
  br i1 %.not61, label %._crit_edge87, label %58

58:                                               ; preds = %44
  %59 = getelementptr inbounds i8, ptr %51, i64 -2
  %60 = sub i64 %3, %.pre
  %61 = trunc i64 %60 to i16
  store i16 %61, ptr %59, align 1
  br label %67

._crit_edge87:                                    ; preds = %41, %44
  %.pre-phi = phi i64 [ %50, %44 ], [ 1, %41 ]
  %62 = getelementptr inbounds nuw i16, ptr %2, i64 %.pre-phi
  %63 = sub i64 %3, %.pre
  %64 = trunc i64 %63 to i16
  store i16 %64, ptr %62, align 1
  %65 = load i8, ptr %6, align 8
  %66 = add i8 %65, 1
  store i8 %66, ptr %6, align 8
  br label %67

67:                                               ; preds = %._crit_edge.thread, %._crit_edge87, %58, %12
  ret void
}